target datalayout = "e-m:e-p270:32:32-p271:32:32-p272:64:64-i64:64-i128:128-f80:128-n8:16:32:64-S128"
target triple = "x86_64-pc-linux-gnu"

%union.elf_file_hdr = type { %struct.elf_file_hdr64 }
%struct.elf_file_hdr64 = type { [16 x i8], i16, i16, i32, i64, i64, i64, i32, i16, i16, i16, i16, i16, i16 }
%struct.cli_ctx_tag = type { ptr, ptr, ptr, ptr, ptr, ptr, ptr, i64, ptr, i32, i32, ptr, i32, i32, ptr, [16 x i8], ptr, ptr, ptr, ptr, ptr, ptr, %struct.timeval, i8, i8 }
%struct.timeval = type { i64, i64 }
%struct.elf_file_hdr32plus = type { %struct.elf_file_hdr32, [12 x i8] }
%struct.elf_file_hdr32 = type { [16 x i8], i16, i16, i32, i32, i32, i32, i32, i16, i16, i16, i16, i16, i16 }

@.str = private unnamed_addr constant [16 x i8] c"in cli_scanelf\0A\00", align 1
@.str.1 = private unnamed_addr constant [22 x i8] c"ELF: File type: None\0A\00", align 1
@.str.2 = private unnamed_addr constant [29 x i8] c"ELF: File type: Relocatable\0A\00", align 1
@.str.3 = private unnamed_addr constant [28 x i8] c"ELF: File type: Executable\0A\00", align 1
@.str.4 = private unnamed_addr constant [22 x i8] c"ELF: File type: Core\0A\00", align 1
@.str.5 = private unnamed_addr constant [30 x i8] c"ELF: File type: Unknown (%d)\0A\00", align 1
@.str.6 = private unnamed_addr constant [25 x i8] c"ELF: Machine type: None\0A\00", align 1
@.str.7 = private unnamed_addr constant [26 x i8] c"ELF: Machine type: SPARC\0A\00", align 1
@.str.8 = private unnamed_addr constant [32 x i8] c"ELF: Machine type: Intel 80386\0A\00", align 1
@.str.9 = private unnamed_addr constant [35 x i8] c"ELF: Machine type: Motorola 68000\0A\00", align 1
@.str.10 = private unnamed_addr constant [32 x i8] c"ELF: Machine type: MIPS RS3000\0A\00", align 1
@.str.11 = private unnamed_addr constant [35 x i8] c"ELF: Machine type: IBM System/370\0A\00", align 1
@.str.12 = private unnamed_addr constant [25 x i8] c"ELF: Machine type: HPPA\0A\00", align 1
@.str.13 = private unnamed_addr constant [28 x i8] c"ELF: Machine type: PowerPC\0A\00", align 1
@.str.14 = private unnamed_addr constant [35 x i8] c"ELF: Machine type: PowerPC 64-bit\0A\00", align 1
@.str.15 = private unnamed_addr constant [29 x i8] c"ELF: Machine type: IBM S390\0A\00", align 1
@.str.16 = private unnamed_addr constant [24 x i8] c"ELF: Machine type: ARM\0A\00", align 1
@.str.17 = private unnamed_addr constant [34 x i8] c"ELF: Machine type: Digital Alpha\0A\00", align 1
@.str.18 = private unnamed_addr constant [36 x i8] c"ELF: Machine type: SPARC v9 64-bit\0A\00", align 1
@.str.19 = private unnamed_addr constant [25 x i8] c"ELF: Machine type: IA64\0A\00", align 1
@.str.20 = private unnamed_addr constant [31 x i8] c"ELF: Machine type: AMD x86-64\0A\00", align 1
@.str.21 = private unnamed_addr constant [35 x i8] c"ELF: Machine type: Unknown (0x%x)\0A\00", align 1

; Function Attrs: nounwind uwtable
define i32 @cli_scanelf(ptr noundef %0) #0 {
  %2 = alloca i32, align 4
  %3 = alloca ptr, align 8
  %4 = alloca %union.elf_file_hdr, align 8
  %5 = alloca ptr, align 8
  %6 = alloca i32, align 4
  %7 = alloca i8, align 1
  %8 = alloca i8, align 1
  store ptr %0, ptr %3, align 8
  %9 = load ptr, ptr %3, align 8
  %10 = getelementptr inbounds %struct.cli_ctx_tag, ptr %9, i32 0, i32 14
  %11 = load ptr, ptr %10, align 8
  store ptr %11, ptr %5, align 8
  store i8 0, ptr %7, align 1
  store i8 0, ptr %8, align 1
  call void (ptr, ...) @cli_dbgmsg(ptr noundef @.str)
  %12 = load ptr, ptr %3, align 8
  %13 = load ptr, ptr %5, align 8
  %14 = call i32 @cli_elf_fileheader(ptr noundef %12, ptr noundef %13, ptr noundef %4, ptr noundef %7, ptr noundef %8)
  store i32 %14, ptr %6, align 4
  %15 = load i32, ptr %6, align 4
  %16 = icmp eq i32 %15, 22
  br i1 %16, label %17, label %18

17:                                               ; preds = %1
  store i32 0, ptr %2, align 4
  br label %109

18:                                               ; preds = %1
  %19 = load i32, ptr %6, align 4
  %20 = icmp ne i32 %19, 0
  br i1 %20, label %21, label %23

21:                                               ; preds = %18
  %22 = load i32, ptr %6, align 4
  store i32 %22, ptr %2, align 4
  br label %109

23:                                               ; preds = %18
  br label %24

24:                                               ; preds = %23
  %25 = getelementptr inbounds %struct.elf_file_hdr64, ptr %4, i32 0, i32 1
  %26 = load i16, ptr %25, align 8
  %27 = zext i16 %26 to i32
  switch i32 %27, label %33 [
    i32 0, label %28
    i32 1, label %29
    i32 2, label %30
    i32 3, label %31
    i32 4, label %32
  ]

28:                                               ; preds = %24
  call void (ptr, ...) @cli_dbgmsg(ptr noundef @.str.1)
  br label %37

29:                                               ; preds = %24
  call void (ptr, ...) @cli_dbgmsg(ptr noundef @.str.2)
  br label %37

30:                                               ; preds = %24
  call void (ptr, ...) @cli_dbgmsg(ptr noundef @.str.3)
  br label %37

31:                                               ; preds = %24
  call void (ptr, ...) @cli_dbgmsg(ptr noundef @.str.4)
  br label %37

32:                                               ; preds = %24
  call void (ptr, ...) @cli_dbgmsg(ptr noundef @.str.4)
  br label %37

33:                                               ; preds = %24
  %34 = getelementptr inbounds %struct.elf_file_hdr64, ptr %4, i32 0, i32 1
  %35 = load i16, ptr %34, align 8
  %36 = zext i16 %35 to i32
  call void (ptr, ...) @cli_dbgmsg(ptr noundef @.str.5, i32 noundef %36)
  br label %37

37:                                               ; preds = %33, %32, %31, %30, %29, %28
  %38 = getelementptr inbounds %struct.elf_file_hdr64, ptr %4, i32 0, i32 2
  %39 = load i16, ptr %38, align 2
  %40 = zext i16 %39 to i32
  switch i32 %40, label %56 [
    i32 0, label %41
    i32 2, label %42
    i32 3, label %43
    i32 4, label %44
    i32 8, label %45
    i32 9, label %46
    i32 15, label %47
    i32 20, label %48
    i32 21, label %49
    i32 22, label %50
    i32 40, label %51
    i32 41, label %52
    i32 43, label %53
    i32 50, label %54
    i32 62, label %55
  ]

41:                                               ; preds = %37
  call void (ptr, ...) @cli_dbgmsg(ptr noundef @.str.6)
  br label %60

42:                                               ; preds = %37
  call void (ptr, ...) @cli_dbgmsg(ptr noundef @.str.7)
  br label %60

43:                                               ; preds = %37
  call void (ptr, ...) @cli_dbgmsg(ptr noundef @.str.8)
  br label %60

44:                                               ; preds = %37
  call void (ptr, ...) @cli_dbgmsg(ptr noundef @.str.9)
  br label %60

45:                                               ; preds = %37
  call void (ptr, ...) @cli_dbgmsg(ptr noundef @.str.10)
  br label %60

46:                                               ; preds = %37
  call void (ptr, ...) @cli_dbgmsg(ptr noundef @.str.11)
  br label %60

47:                                               ; preds = %37
  call void (ptr, ...) @cli_dbgmsg(ptr noundef @.str.12)
  br label %60

48:                                               ; preds = %37
  call void (ptr, ...) @cli_dbgmsg(ptr noundef @.str.13)
  br label %60

49:                                               ; preds = %37
  call void (ptr, ...) @cli_dbgmsg(ptr noundef @.str.14)
  br label %60

50:                                               ; preds = %37
  call void (ptr, ...) @cli_dbgmsg(ptr noundef @.str.15)
  br label %60

51:                                               ; preds = %37
  call void (ptr, ...) @cli_dbgmsg(ptr noundef @.str.16)
  br label %60

52:                                               ; preds = %37
  call void (ptr, ...) @cli_dbgmsg(ptr noundef @.str.17)
  br label %60

53:                                               ; preds = %37
  call void (ptr, ...) @cli_dbgmsg(ptr noundef @.str.18)
  br label %60

54:                                               ; preds = %37
  call void (ptr, ...) @cli_dbgmsg(ptr noundef @.str.19)
  br label %60

55:                                               ; preds = %37
  call void (ptr, ...) @cli_dbgmsg(ptr noundef @.str.20)
  br label %60

56:                                               ; preds = %37
  %57 = getelementptr inbounds %struct.elf_file_hdr64, ptr %4, i32 0, i32 2
  %58 = load i16, ptr %57, align 2
  %59 = zext i16 %58 to i32
  call void (ptr, ...) @cli_dbgmsg(ptr noundef @.str.21, i32 noundef %59)
  br label %60

60:                                               ; preds = %56, %55, %54, %53, %52, %51, %50, %49, %48, %47, %46, %45, %44, %43, %42, %41
  %61 = load i8, ptr %8, align 1
  %62 = icmp ne i8 %61, 0
  br i1 %62, label %63, label %68

63:                                               ; preds = %60
  %64 = load ptr, ptr %3, align 8
  %65 = load ptr, ptr %5, align 8
  %66 = load i8, ptr %7, align 1
  %67 = call i32 @cli_elf_ph64(ptr noundef %64, ptr noundef %65, ptr noundef null, ptr noundef %4, i8 noundef zeroext %66)
  store i32 %67, ptr %6, align 4
  br label %74

68:                                               ; preds = %60
  %69 = load ptr, ptr %3, align 8
  %70 = load ptr, ptr %5, align 8
  %71 = getelementptr inbounds %struct.elf_file_hdr32plus, ptr %4, i32 0, i32 0
  %72 = load i8, ptr %7, align 1
  %73 = call i32 @cli_elf_ph32(ptr noundef %69, ptr noundef %70, ptr noundef null, ptr noundef %71, i8 noundef zeroext %72)
  store i32 %73, ptr %6, align 4
  br label %74

74:                                               ; preds = %68, %63
  %75 = load i32, ptr %6, align 4
  %76 = icmp eq i32 %75, 22
  br i1 %76, label %77, label %78

77:                                               ; preds = %74
  store i32 0, ptr %2, align 4
  br label %109

78:                                               ; preds = %74
  %79 = load i32, ptr %6, align 4
  %80 = icmp ne i32 %79, 0
  br i1 %80, label %81, label %83

81:                                               ; preds = %78
  %82 = load i32, ptr %6, align 4
  store i32 %82, ptr %2, align 4
  br label %109

83:                                               ; preds = %78
  br label %84

84:                                               ; preds = %83
  %85 = load i8, ptr %8, align 1
  %86 = icmp ne i8 %85, 0
  br i1 %86, label %87, label %92

87:                                               ; preds = %84
  %88 = load ptr, ptr %3, align 8
  %89 = load ptr, ptr %5, align 8
  %90 = load i8, ptr %7, align 1
  %91 = call i32 @cli_elf_sh64(ptr noundef %88, ptr noundef %89, ptr noundef null, ptr noundef %4, i8 noundef zeroext %90)
  store i32 %91, ptr %6, align 4
  br label %98

92:                                               ; preds = %84
  %93 = load ptr, ptr %3, align 8
  %94 = load ptr, ptr %5, align 8
  %95 = getelementptr inbounds %struct.elf_file_hdr32plus, ptr %4, i32 0, i32 0
  %96 = load i8, ptr %7, align 1
  %97 = call i32 @cli_elf_sh32(ptr noundef %93, ptr noundef %94, ptr noundef null, ptr noundef %95, i8 noundef zeroext %96)
  store i32 %97, ptr %6, align 4
  br label %98

98:                                               ; preds = %92, %87
  %99 = load i32, ptr %6, align 4
  %100 = icmp eq i32 %99, 22
  br i1 %100, label %101, label %102

101:                                              ; preds = %98
  store i32 0, ptr %2, align 4
  br label %109

102:                                              ; preds = %98
  %103 = load i32, ptr %6, align 4
  %104 = icmp ne i32 %103, 0
  br i1 %104, label %105, label %107

105:                                              ; preds = %102
  %106 = load i32, ptr %6, align 4
  store i32 %106, ptr %2, align 4
  br label %109

107:                                              ; preds = %102
  br label %108

108:                                              ; preds = %107
  store i32 0, ptr %2, align 4
  br label %109

109:                                              ; preds = %108, %105, %101, %81, %77, %21, %17
  %110 = load i32, ptr %2, align 4
  ret i32 %110
}