; Function Attrs: nounwind uwtable
define noundef i32 @cli_scanelf(ptr noundef %0) local_unnamed_addr #0 {
  %2 = alloca %union.elf_file_hdr, align 8
  %3 = alloca i8, align 1
  %4 = alloca i8, align 1
  %5 = getelementptr inbounds i8, ptr %0, i64 96
  %6 = load ptr, ptr %5, align 8
  store i8 0, ptr %3, align 1
  store i8 0, ptr %4, align 1
  tail call void (ptr, ...) @cli_dbgmsg(ptr noundef nonnull @.str) #8
  %7 = call fastcc i32 @cli_elf_fileheader(ptr noundef %0, ptr noundef %6, ptr noundef nonnull %2, ptr noundef nonnull %3, ptr noundef nonnull %4), !range !4
  switch i32 %7, label %8 [
    i32 22, label %55
    i32 0, label %9
  ]

8:                                                ; preds = %1
  br label %55

9:                                                ; preds = %1
  %10 = getelementptr inbounds i8, ptr %2, i64 16
  %11 = load i16, ptr %10, align 8
  switch i16 %11, label %17 [
    i16 0, label %12
    i16 1, label %13
    i16 2, label %14
    i16 3, label %15
    i16 4, label %16
  ]

12:                                               ; preds = %9
  tail call void (ptr, ...) @cli_dbgmsg(ptr noundef nonnull @.str.1) #8
  br label %19

13:                                               ; preds = %9
  tail call void (ptr, ...) @cli_dbgmsg(ptr noundef nonnull @.str.2) #8
  br label %19

14:                                               ; preds = %9
  tail call void (ptr, ...) @cli_dbgmsg(ptr noundef nonnull @.str.3) #8
  br label %19

15:                                               ; preds = %9
  tail call void (ptr, ...) @cli_dbgmsg(ptr noundef nonnull @.str.4) #8
  br label %19

16:                                               ; preds = %9
  tail call void (ptr, ...) @cli_dbgmsg(ptr noundef nonnull @.str.4) #8
  br label %19

17:                                               ; preds = %9
  %18 = zext i16 %11 to i32
  tail call void (ptr, ...) @cli_dbgmsg(ptr noundef nonnull @.str.5, i32 noundef %18) #8
  br label %19

19:                                               ; preds = %17, %16, %15, %14, %13, %12
  %20 = getelementptr inbounds i8, ptr %2, i64 18
  %21 = load i16, ptr %20, align 2
  switch i16 %21, label %37 [
    i16 0, label %22
    i16 2, label %23
    i16 3, label %24
    i16 4, label %25
    i16 8, label %26
    i16 9, label %27
    i16 15, label %28
    i16 20, label %29
    i16 21, label %30
    i16 22, label %31
    i16 40, label %32
    i16 41, label %33
    i16 43, label %34
    i16 50, label %35
    i16 62, label %36
  ]

22:                                               ; preds = %19
  tail call void (ptr, ...) @cli_dbgmsg(ptr noundef nonnull @.str.6) #8
  br label %39

23:                                               ; preds = %19
  tail call void (ptr, ...) @cli_dbgmsg(ptr noundef nonnull @.str.7) #8
  br label %39

24:                                               ; preds = %19
  tail call void (ptr, ...) @cli_dbgmsg(ptr noundef nonnull @.str.8) #8
  br label %39

25:                                               ; preds = %19
  tail call void (ptr, ...) @cli_dbgmsg(ptr noundef nonnull @.str.9) #8
  br label %39

26:                                               ; preds = %19
  tail call void (ptr, ...) @cli_dbgmsg(ptr noundef nonnull @.str.10) #8
  br label %39

27:                                               ; preds = %19
  tail call void (ptr, ...) @cli_dbgmsg(ptr noundef nonnull @.str.11) #8
  br label %39

28:                                               ; preds = %19
  tail call void (ptr, ...) @cli_dbgmsg(ptr noundef nonnull @.str.12) #8
  br label %39

29:                                               ; preds = %19
  tail call void (ptr, ...) @cli_dbgmsg(ptr noundef nonnull @.str.13) #8
  br label %39

30:                                               ; preds = %19
  tail call void (ptr, ...) @cli_dbgmsg(ptr noundef nonnull @.str.14) #8
  br label %39

31:                                               ; preds = %19
  tail call void (ptr, ...) @cli_dbgmsg(ptr noundef nonnull @.str.15) #8
  br label %39

32:                                               ; preds = %19
  tail call void (ptr, ...) @cli_dbgmsg(ptr noundef nonnull @.str.16) #8
  br label %39

33:                                               ; preds = %19
  tail call void (ptr, ...) @cli_dbgmsg(ptr noundef nonnull @.str.17) #8
  br label %39

34:                                               ; preds = %19
  tail call void (ptr, ...) @cli_dbgmsg(ptr noundef nonnull @.str.18) #8
  br label %39

35:                                               ; preds = %19
  tail call void (ptr, ...) @cli_dbgmsg(ptr noundef nonnull @.str.19) #8
  br label %39

36:                                               ; preds = %19
  tail call void (ptr, ...) @cli_dbgmsg(ptr noundef nonnull @.str.20) #8
  br label %39

37:                                               ; preds = %19
  %38 = zext i16 %21 to i32
  tail call void (ptr, ...) @cli_dbgmsg(ptr noundef nonnull @.str.21, i32 noundef %38) #8
  br label %39

39:                                               ; preds = %37, %36, %35, %34, %33, %32, %31, %30, %29, %28, %27, %26, %25, %24, %23, %22
  %40 = load i8, ptr %4, align 1
  %.not22 = icmp eq i8 %40, 0
  %41 = load i8, ptr %3, align 1
  br i1 %.not22, label %44, label %42

42:                                               ; preds = %39
  %43 = call fastcc i32 @cli_elf_ph64(ptr noundef nonnull %0, ptr noundef %6, ptr noundef null, ptr noundef nonnull %2, i8 noundef zeroext %41), !range !5
  br label %46

44:                                               ; preds = %39
  %45 = call fastcc i32 @cli_elf_ph32(ptr noundef nonnull %0, ptr noundef %6, ptr noundef null, ptr noundef nonnull %2, i8 noundef zeroext %41), !range !5
  br label %46

46:                                               ; preds = %44, %42
  %.0 = phi i32 [ %43, %42 ], [ %45, %44 ]
  switch i32 %.0, label %47 [
    i32 22, label %55
    i32 0, label %48
  ]

47:                                               ; preds = %46
  br label %55

48:                                               ; preds = %46
  br i1 %.not22, label %51, label %49

49:                                               ; preds = %48
  %50 = call fastcc i32 @cli_elf_sh64(ptr noundef nonnull %0, ptr noundef %6, ptr noundef null, ptr noundef nonnull %2, i8 noundef zeroext %41), !range !5
  br label %53

51:                                               ; preds = %48
  %52 = call fastcc i32 @cli_elf_sh32(ptr noundef nonnull %0, ptr noundef %6, ptr noundef null, ptr noundef nonnull %2, i8 noundef zeroext %41), !range !5
  br label %53

53:                                               ; preds = %51, %49
  %.1 = phi i32 [ %50, %49 ], [ %52, %51 ]
  switch i32 %.1, label %54 [
    i32 22, label %55
    i32 0, label %55
  ]

54:                                               ; preds = %53
  br label %55

55:                                               ; preds = %53, %53, %46, %1, %54, %47, %8
  %.020 = phi i32 [ %7, %8 ], [ %.0, %47 ], [ %.1, %54 ], [ 0, %1 ], [ 0, %46 ], [ 0, %53 ], [ 0, %53 ]
  ret i32 %.020
}